; Function Attrs: mustprogress nofree norecurse nosync nounwind willreturn memory(read, inaccessiblemem: none) uwtable
define hidden noundef zeroext i1 @_ZN8GraphKit7stoppedEv(ptr nocapture noundef nonnull readonly align 8 dereferenceable(84) %0) local_unnamed_addr #3 align 2 {
  %2 = getelementptr inbounds i8, ptr %0, i64 40
  %3 = load ptr, ptr %2, align 8
  %4 = icmp eq ptr %3, null
  br i1 %4, label %14, label %5

5:                                                ; preds = %1
  %6 = getelementptr inbounds i8, ptr %3, i64 8
  %7 = load ptr, ptr %6, align 8
  %8 = load ptr, ptr %7, align 8
  %9 = getelementptr inbounds i8, ptr %0, i64 16
  %10 = load ptr, ptr %9, align 8
  %11 = getelementptr inbounds i8, ptr %10, i64 744
  %12 = load ptr, ptr %11, align 8
  %13 = icmp eq ptr %8, %12
  br label %14

14:                                               ; preds = %5, %1
  %.0 = phi i1 [ true, %1 ], [ %13, %5 ]
  ret i1 %.0
}